Certificate:
    Data:
        Version: 3 (0x2)
        Serial Number: 1 (0x1)
        Signature Algorithm: sha1WithRSAEncryption
        Issuer: C=US, ST=CA, L=SanFrancisco, O=Fort-Funston, CN=Fort-Funston CA/emailAddress=admin@musicdelta-demo.com
        Validity
            Not Before: Nov 16 13:13:41 2011 GMT
            Not After : Nov 13 13:13:41 2021 GMT
        Subject: C=US, ST=CA, L=SanFrancisco, O=Fort-Funston, CN=server/emailAddress=admin@musicdelta-demo.com
        Subject Public Key Info:
            Public Key Algorithm: rsaEncryption
                Public-Key: (1024 bit)
                Modulus:
                    00:db:64:26:60:85:ac:24:86:26:5b:fb:4c:a1:ce:
                    50:23:99:e7:76:18:c7:61:75:94:22:f1:fc:96:00:
                    67:fa:6f:67:48:13:93:ac:41:1d:45:90:4d:a9:3d:
                    72:75:af:eb:d1:3f:4e:8f:7b:8f:f1:d3:88:39:84:
                    87:89:81:0c:8d:f8:6d:8d:c3:23:81:29:01:0f:06:
                    c4:68:aa:5a:49:c2:8c:e9:84:db:1d:24:0c:f3:a9:
                    8b:14:69:0f:53:ea:df:a0:e3:31:d7:1e:45:5e:c7:
                    22:e1:56:a7:c9:49:5f:62:17:63:14:de:55:53:67:
                    17:38:25:b8:25:24:1d:eb:ed
                Exponent: 65537 (0x10001)
        X509v3 extensions:
            X509v3 Basic Constraints: 
                CA:FALSE
            Netscape Cert Type: 
                SSL Server
            Netscape Comment: 
                Easy-RSA Generated Server Certificate
            X509v3 Subject Key Identifier: 
                8A:6D:F2:36:CD:1A:FB:D2:54:B5:77:65:20:F8:35:CE:B0:B5:9B:A8
            X509v3 Authority Key Identifier: 
                keyid:45:23:7D:DA:A1:42:4A:68:BD:35:35:DB:E1:02:F5:38:AB:01:D7:B0
                DirName:/C=US/ST=CA/L=SanFrancisco/O=Fort-Funston/CN=Fort-Funston CA/emailAddress=admin@musicdelta-demo.com
                serial:D6:BF:6F:23:71:BA:B8:46

            X509v3 Extended Key Usage: 
                TLS Web Server Authentication
            X509v3 Key Usage: 
                Digital Signature, Key Encipherment
    Signature Algorithm: sha1WithRSAEncryption
        4e:0c:4f:29:4f:69:02:6d:4e:47:b3:85:ae:d3:43:57:e4:a2:
        7b:4c:c2:07:6a:ab:f5:51:9d:9c:83:2d:7a:c8:20:d3:91:ca:
        dd:99:a8:68:42:54:45:07:ac:7a:26:7c:07:d4:b3:03:ae:36:
        17:9d:5f:1e:c1:a3:74:73:10:8c:33:aa:24:e0:85:65:f0:65:
        ec:62:43:57:cd:2a:68:c1:8c:ea:8c:b6:7d:ef:97:68:6b:d9:
        28:a8:70:dc:8a:c8:17:57:87:0f:38:56:ce:7a:d7:2e:c0:d8:
        ea:64:a3:77:57:db:d6:ea:09:16:e7:e2:ee:cf:2e:89:ac:b1:
        35:37
-----BEGIN CERTIFICATE-----
MIID5jCCA0+gAwIBAgIBATANBgkqhkiG9w0BAQUFADCBjDELMAkGA1UEBhMCVVMx
CzAJBgNVBAgTAkNBMRUwEwYDVQQHEwxTYW5GcmFuY2lzY28xFTATBgNVBAoTDEZv
cnQtRnVuc3RvbjEYMBYGA1UEAxMPRm9ydC1GdW5zdG9uIENBMSgwJgYJKoZIhvcN
AQkBFhlhZG1pbkBtdXNpY2RlbHRhLWRlbW8uY29tMB4XDTExMTExNjEzMTM0MVoX
DTIxMTExMzEzMTM0MVowgYMxCzAJBgNVBAYTAlVTMQswCQYDVQQIEwJDQTEVMBMG
A1UEBxMMU2FuRnJhbmNpc2NvMRUwEwYDVQQKEwxGb3J0LUZ1bnN0b24xDzANBgNV
BAMTBnNlcnZlcjEoMCYGCSqGSIb3DQEJARYZYWRtaW5AbXVzaWNkZWx0YS1kZW1v
LmNvbTCBnzANBgkqhkiG9w0BAQEFAAOBjQAwgYkCgYEA22QmYIWsJIYmW/tMoc5Q
I5nndhjHYXWUIvH8lgBn+m9nSBOTrEEdRZBNqT1yda/r0T9Oj3uP8dOIOYSHiYEM
jfhtjcMjgSkBDwbEaKpaScKM6YTbHSQM86mLFGkPU+rfoOMx1x5FXsci4VanyUlf
YhdjFN5VU2cXOCW4JSQd6+0CAwEAAaOCAV0wggFZMAkGA1UdEwQCMAAwEQYJYIZI
AYb4QgEBBAQDAgZAMDQGCWCGSAGG+EIBDQQnFiVFYXN5LVJTQSBHZW5lcmF0ZWQg
U2VydmVyIENlcnRpZmljYXRlMB0GA1UdDgQWBBSKbfI2zRr70lS1d2Ug+DXOsLWb
qDCBwQYDVR0jBIG5MIG2gBRFI33aoUJKaL01NdvhAvU4qwHXsKGBkqSBjzCBjDEL
MAkGA1UEBhMCVVMxCzAJBgNVBAgTAkNBMRUwEwYDVQQHEwxTYW5GcmFuY2lzY28x
FTATBgNVBAoTDEZvcnQtRnVuc3RvbjEYMBYGA1UEAxMPRm9ydC1GdW5zdG9uIENB
MSgwJgYJKoZIhvcNAQkBFhlhZG1pbkBtdXNpY2RlbHRhLWRlbW8uY29tggkA1r9v
I3G6uEYwEwYDVR0lBAwwCgYIKwYBBQUHAwEwCwYDVR0PBAQDAgWgMA0GCSqGSIb3
DQEBBQUAA4GBAE4MTylPaQJtTkezha7TQ1fkontMwgdqq/VRnZyDLXrIINORyt2Z
qGhCVEUHrHomfAfUswOuNhedXx7Bo3RzEIwzqiTghWXwZexiQ1fNKmjBjOqMtn3v
l2hr2SiocNyKyBdXhw84Vs561y7A2Opko3dX29bqCRbn4u7PLomssTU3
-----END CERTIFICATE-----
